; Function Attrs: mustprogress uwtable
define void @_ZN7rocksdb19MemTableListVersion11AddMemTableEPNS_16ReadOnlyMemTableE(ptr noundef nonnull align 8 captures(none) dereferenceable(88) %0, ptr noundef %1) local_unnamed_addr #4 align 2 personality ptr @__gxx_personality_v0 {
  %3 = load ptr, ptr %0, align 8, !tbaa !18
  %4 = tail call noalias noundef nonnull dereferenceable(24) ptr @_Znwm(i64 noundef 24) #26
  %5 = getelementptr inbounds nuw i8, ptr %4, i64 16
  store ptr %1, ptr %5, align 8, !tbaa !21
  tail call void @_ZNSt8__detail15_List_node_base7_M_hookEPS0_(ptr noundef nonnull align 8 dereferenceable(16) %4, ptr noundef %3) #27
  %6 = getelementptr inbounds nuw i8, ptr %0, i64 16
  %7 = load i64, ptr %6, align 8, !tbaa !23
  %8 = add i64 %7, 1
  store i64 %8, ptr %6, align 8, !tbaa !23
  %9 = load ptr, ptr %1, align 8, !tbaa !27
  %10 = getelementptr inbounds nuw i8, ptr %9, i64 24
  %11 = load ptr, ptr %10, align 8
  %12 = tail call noundef i64 %11(ptr noundef nonnull align 8 dereferenceable(560) %1)
  %13 = getelementptr inbounds nuw i8, ptr %0, i64 72
  %14 = load ptr, ptr %13, align 8, !tbaa !29
  %15 = load i64, ptr %14, align 8, !tbaa !34
  %16 = add i64 %15, %12
  store i64 %16, ptr %14, align 8, !tbaa !34
  ret void
}